target datalayout = "e-m:e-p270:32:32-p271:32:32-p272:64:64-i64:64-i128:128-f80:128-n8:16:32:64-S128"
target triple = "x86_64-pc-linux-gnu"

%struct.lua_Page = type { ptr, ptr, ptr, ptr, i32, i32, ptr, i32, i32, %union.anon.0 }
%union.anon.0 = type { double }
%struct.GCheader = type { i8, i8, i8 }

; Function Attrs: mustprogress nounwind uwtable
define hidden void @_Z20luaM_getpagewalkinfoP8lua_PagePPcS2_PiS3_(ptr noundef %0, ptr noundef %1, ptr noundef %2, ptr noundef %3, ptr noundef %4) #1 {
  %6 = alloca ptr, align 8
  %7 = alloca ptr, align 8
  %8 = alloca ptr, align 8
  %9 = alloca ptr, align 8
  %10 = alloca ptr, align 8
  %11 = alloca i32, align 4
  %12 = alloca ptr, align 8
  store ptr %0, ptr %6, align 8, !tbaa !54
  store ptr %1, ptr %7, align 8, !tbaa !68
  store ptr %2, ptr %8, align 8, !tbaa !68
  store ptr %3, ptr %9, align 8, !tbaa !70
  store ptr %4, ptr %10, align 8, !tbaa !70
  call void @llvm.lifetime.start.p0(i64 4, ptr %11) #10
  %13 = load ptr, ptr %6, align 8, !tbaa !54
  %14 = getelementptr inbounds nuw %struct.lua_Page, ptr %13, i32 0, i32 4
  %15 = load i32, ptr %14, align 8, !tbaa !66
  %16 = sext i32 %15 to i64
  %17 = sub i64 %16, 56
  %18 = load ptr, ptr %6, align 8, !tbaa !54
  %19 = getelementptr inbounds nuw %struct.lua_Page, ptr %18, i32 0, i32 5
  %20 = load i32, ptr %19, align 4, !tbaa !57
  %21 = sext i32 %20 to i64
  %22 = udiv i64 %17, %21
  %23 = trunc i64 %22 to i32
  store i32 %23, ptr %11, align 4, !tbaa !12
  call void @llvm.lifetime.start.p0(i64 8, ptr %12) #10
  %24 = load ptr, ptr %6, align 8, !tbaa !54
  %25 = getelementptr inbounds nuw %struct.lua_Page, ptr %24, i32 0, i32 9
  %26 = getelementptr inbounds [1 x i8], ptr %25, i64 0, i64 0
  store ptr %26, ptr %12, align 8, !tbaa !72
  %27 = load ptr, ptr %12, align 8, !tbaa !72
  %28 = load ptr, ptr %6, align 8, !tbaa !54
  %29 = getelementptr inbounds nuw %struct.lua_Page, ptr %28, i32 0, i32 7
  %30 = load i32, ptr %29, align 8, !tbaa !55
  %31 = sext i32 %30 to i64
  %32 = getelementptr inbounds i8, ptr %27, i64 %31
  %33 = load ptr, ptr %6, align 8, !tbaa !54
  %34 = getelementptr inbounds nuw %struct.lua_Page, ptr %33, i32 0, i32 5
  %35 = load i32, ptr %34, align 4, !tbaa !57
  %36 = sext i32 %35 to i64
  %37 = getelementptr inbounds i8, ptr %32, i64 %36
  %38 = load ptr, ptr %7, align 8, !tbaa !68
  store ptr %37, ptr %38, align 8, !tbaa !72
  %39 = load ptr, ptr %12, align 8, !tbaa !72
  %40 = load i32, ptr %11, align 4, !tbaa !12
  %41 = load ptr, ptr %6, align 8, !tbaa !54
  %42 = getelementptr inbounds nuw %struct.lua_Page, ptr %41, i32 0, i32 5
  %43 = load i32, ptr %42, align 4, !tbaa !57
  %44 = mul nsw i32 %40, %43
  %45 = sext i32 %44 to i64
  %46 = getelementptr inbounds i8, ptr %39, i64 %45
  %47 = load ptr, ptr %8, align 8, !tbaa !68
  store ptr %46, ptr %47, align 8, !tbaa !72
  %48 = load ptr, ptr %6, align 8, !tbaa !54
  %49 = getelementptr inbounds nuw %struct.lua_Page, ptr %48, i32 0, i32 8
  %50 = load i32, ptr %49, align 4, !tbaa !58
  %51 = load ptr, ptr %9, align 8, !tbaa !70
  store i32 %50, ptr %51, align 4, !tbaa !12
  %52 = load ptr, ptr %6, align 8, !tbaa !54
  %53 = getelementptr inbounds nuw %struct.lua_Page, ptr %52, i32 0, i32 5
  %54 = load i32, ptr %53, align 4, !tbaa !57
  %55 = load ptr, ptr %10, align 8, !tbaa !70
  store i32 %54, ptr %55, align 4, !tbaa !12
  call void @llvm.lifetime.end.p0(i64 8, ptr %12) #10
  call void @llvm.lifetime.end.p0(i64 4, ptr %11) #10
  ret void
}

; Function Attrs: mustprogress uwtable
define hidden void @_Z14luaM_visitpageP8lua_PagePvPFbS1_S0_P8GCObjectE(ptr noundef %0, ptr noundef %1, ptr noundef %2) #5 {
  %4 = alloca ptr, align 8
  %5 = alloca ptr, align 8
  %6 = alloca ptr, align 8
  %7 = alloca ptr, align 8
  %8 = alloca ptr, align 8
  %9 = alloca i32, align 4
  %10 = alloca i32, align 4
  %11 = alloca ptr, align 8
  %12 = alloca i32, align 4
  %13 = alloca ptr, align 8
  store ptr %0, ptr %4, align 8, !tbaa !54
  store ptr %1, ptr %5, align 8, !tbaa !51
  store ptr %2, ptr %6, align 8, !tbaa !51
  call void @llvm.lifetime.start.p0(i64 8, ptr %7) #10
  call void @llvm.lifetime.start.p0(i64 8, ptr %8) #10
  call void @llvm.lifetime.start.p0(i64 4, ptr %9) #10
  call void @llvm.lifetime.start.p0(i64 4, ptr %10) #10
  %14 = load ptr, ptr %4, align 8, !tbaa !54
  call void @_Z20luaM_getpagewalkinfoP8lua_PagePPcS2_PiS3_(ptr noundef %14, ptr noundef %7, ptr noundef %8, ptr noundef %9, ptr noundef %10)
  call void @llvm.lifetime.start.p0(i64 8, ptr %11) #10
  %15 = load ptr, ptr %7, align 8, !tbaa !72
  store ptr %15, ptr %11, align 8, !tbaa !72
  br label %16

16:                                               ; preds = %45, %3
  %17 = load ptr, ptr %11, align 8, !tbaa !72
  %18 = load ptr, ptr %8, align 8, !tbaa !72
  %19 = icmp ne ptr %17, %18
  br i1 %19, label %21, label %20

20:                                               ; preds = %16
  store i32 2, ptr %12, align 4
  br label %50

21:                                               ; preds = %16
  call void @llvm.lifetime.start.p0(i64 8, ptr %13) #10
  %22 = load ptr, ptr %11, align 8, !tbaa !72
  store ptr %22, ptr %13, align 8, !tbaa !67
  %23 = load ptr, ptr %13, align 8, !tbaa !67
  %24 = getelementptr inbounds nuw %struct.GCheader, ptr %23, i32 0, i32 0
  %25 = load i8, ptr %24, align 8, !tbaa !18
  %26 = zext i8 %25 to i32
  %27 = icmp eq i32 %26, 0
  br i1 %27, label %28, label %29

28:                                               ; preds = %21
  store i32 4, ptr %12, align 4
  br label %42

29:                                               ; preds = %21
  %30 = load ptr, ptr %6, align 8, !tbaa !51
  %31 = load ptr, ptr %5, align 8, !tbaa !51
  %32 = load ptr, ptr %4, align 8, !tbaa !54
  %33 = load ptr, ptr %13, align 8, !tbaa !67
  %34 = call noundef zeroext i1 %30(ptr noundef %31, ptr noundef %32, ptr noundef %33)
  br i1 %34, label %35, label %41

35:                                               ; preds = %29
  %36 = load i32, ptr %9, align 4, !tbaa !12
  %37 = add nsw i32 %36, -1
  store i32 %37, ptr %9, align 4, !tbaa !12
  %38 = icmp eq i32 %37, 0
  br i1 %38, label %39, label %40

39:                                               ; preds = %35
  store i32 2, ptr %12, align 4
  br label %42

40:                                               ; preds = %35
  br label %41

41:                                               ; preds = %40, %29
  store i32 0, ptr %12, align 4
  br label %42

42:                                               ; preds = %41, %39, %28
  call void @llvm.lifetime.end.p0(i64 8, ptr %13) #10
  %43 = load i32, ptr %12, align 4
  switch i32 %43, label %50 [
    i32 0, label %44
    i32 4, label %45
  ]

44:                                               ; preds = %42
  br label %45

45:                                               ; preds = %44, %42
  %46 = load i32, ptr %10, align 4, !tbaa !12
  %47 = load ptr, ptr %11, align 8, !tbaa !72
  %48 = sext i32 %46 to i64
  %49 = getelementptr inbounds i8, ptr %47, i64 %48
  store ptr %49, ptr %11, align 8, !tbaa !72
  br label %16, !llvm.loop !74

50:                                               ; preds = %42, %20
  call void @llvm.lifetime.end.p0(i64 8, ptr %11) #10
  br label %51

51:                                               ; preds = %50
  call void @llvm.lifetime.end.p0(i64 4, ptr %10) #10
  call void @llvm.lifetime.end.p0(i64 4, ptr %9) #10
  call void @llvm.lifetime.end.p0(i64 8, ptr %8) #10
  call void @llvm.lifetime.end.p0(i64 8, ptr %7) #10
  ret void
}