; Function Attrs: mustprogress uwtable
define hidden void @_Z14luaM_visitpageP8lua_PagePvPFbS1_S0_P8GCObjectE(ptr noundef %0, ptr noundef %1, ptr noundef readonly captures(none) %2) local_unnamed_addr #3 {
  %4 = getelementptr inbounds nuw i8, ptr %0, i64 32
  %5 = load i32, ptr %4, align 8, !tbaa !49
  %6 = sext i32 %5 to i64
  %7 = add nsw i64 %6, -56
  %8 = getelementptr inbounds nuw i8, ptr %0, i64 36
  %9 = load i32, ptr %8, align 4, !tbaa !24
  %10 = sext i32 %9 to i64
  %11 = udiv i64 %7, %10
  %12 = trunc i64 %11 to i32
  %13 = getelementptr inbounds nuw i8, ptr %0, i64 56
  %14 = getelementptr inbounds nuw i8, ptr %0, i64 48
  %15 = load i32, ptr %14, align 8, !tbaa !22
  %16 = sext i32 %15 to i64
  %17 = getelementptr inbounds i8, ptr %13, i64 %16
  %18 = mul nsw i32 %9, %12
  %19 = sext i32 %18 to i64
  %20 = getelementptr inbounds i8, ptr %13, i64 %19
  %.016 = getelementptr inbounds i8, ptr %17, i64 %10
  %.not17 = icmp eq ptr %.016, %20
  br i1 %.not17, label %._crit_edge, label %.lr.ph.preheader

.lr.ph.preheader:                                 ; preds = %3
  %21 = getelementptr inbounds nuw i8, ptr %0, i64 52
  %22 = load i32, ptr %21, align 4, !tbaa !25
  br label %.lr.ph

.lr.ph:                                           ; preds = %.lr.ph.preheader, %30
  %.019 = phi ptr [ %.0, %30 ], [ %.016, %.lr.ph.preheader ]
  %.01218 = phi i32 [ %.1.ph, %30 ], [ %22, %.lr.ph.preheader ]
  %23 = load i8, ptr %.019, align 8, !tbaa !19
  %24 = icmp eq i8 %23, 0
  br i1 %24, label %30, label %25

25:                                               ; preds = %.lr.ph
  %26 = tail call noundef zeroext i1 %2(ptr noundef %1, ptr noundef %0, ptr noundef nonnull %.019)
  br i1 %26, label %27, label %30

27:                                               ; preds = %25
  %28 = add nsw i32 %.01218, -1
  %29 = icmp eq i32 %28, 0
  br i1 %29, label %._crit_edge, label %30

30:                                               ; preds = %27, %.lr.ph, %25
  %.1.ph = phi i32 [ %.01218, %25 ], [ %.01218, %.lr.ph ], [ %28, %27 ]
  %.0 = getelementptr inbounds i8, ptr %.019, i64 %10
  %.not = icmp eq ptr %.0, %20
  br i1 %.not, label %._crit_edge, label %.lr.ph, !llvm.loop !55

._crit_edge:                                      ; preds = %30, %27, %3
  ret void
}